#include <math.h>
#include <stdio.h>
#include <stdlib.h>
#include <string.h>

int main ()
{
	int n,i,j,a[1000][1000],m=0,p,q;
	scanf("%d",&n);
	for(i=1;i<=n;i++)
	{
		for(j=1;j<=n;j++)
		{
			scanf("%d",&a[i][j]);
		}
	}
    for(i=1;i<=n;i++)
	{
		for(j=1;j<=n;j++)
		{
			if(a[i][j]==0&&a[i][j+1]!=0)
				break;
		}
		p=j;
	    for(j=n;j>=0;j--)
		{
			if(a[i][j]==0&&a[i][j-1]!=0)
				break;
		}
		q=j;
		if(q>p)
			m=m+q-p-1;
	}
	printf("%d\n",m);
	return 0;
}